target datalayout = "e-m:e-p270:32:32-p271:32:32-p272:64:64-i64:64-i128:128-f80:128-n8:16:32:64-S128"
target triple = "x86_64-pc-linux-gnu"

%struct.tm = type { i32, i32, i32, i32, i32, i32, i32, i32, i32, i64, ptr }

@H5_init_g = external global i8, align 1
@H5_libterm_g = external global i8, align 1
@H5_ntzset = internal global i8 0, align 1
@.str = private unnamed_addr constant [102 x i8] c"generated/home/dtcxzyw/WorkSpace/Projects/compilers/llvm-opt-benchmark/bench/hdf5/hdf5/src/H5system.c\00", align 1
@__func__.H5_make_time = private unnamed_addr constant [13 x i8] c"H5_make_time\00", align 1
@H5E_INTERNAL_g = external global i64, align 8
@H5E_CANTCONVERT_g = external global i64, align 8
@.str.1 = private unnamed_addr constant [42 x i8] c"badly formatted modification time message\00", align 1

; Function Attrs: nounwind uwtable
define i64 @H5_make_time(ptr noundef %0) #0 {
  %2 = alloca ptr, align 8
  %3 = alloca i64, align 8
  %4 = alloca i64, align 8
  %5 = alloca i8, align 1
  store ptr %0, ptr %2, align 8, !tbaa !15
  call void @llvm.lifetime.start.p0(i64 8, ptr %3) #9
  call void @llvm.lifetime.start.p0(i64 8, ptr %4) #9
  store i64 0, ptr %4, align 8, !tbaa !18
  call void @llvm.lifetime.start.p0(i64 1, ptr %5) #9
  store i8 0, ptr %5, align 1, !tbaa !19
  %6 = load i8, ptr @H5_init_g, align 1, !tbaa !19, !range !21, !noundef !22
  %7 = trunc i8 %6 to i1
  br i1 %7, label %12, label %8

8:                                                ; preds = %1
  %9 = load i8, ptr @H5_libterm_g, align 1, !tbaa !19, !range !21, !noundef !22
  %10 = trunc i8 %9 to i1
  %11 = xor i1 %10, true
  br label %12

12:                                               ; preds = %8, %1
  %13 = phi i1 [ true, %1 ], [ %11, %8 ]
  %14 = xor i1 %13, true
  %15 = xor i1 %14, true
  %16 = zext i1 %15 to i32
  %17 = sext i32 %16 to i64
  %18 = call i64 @llvm.expect.i64(i64 %17, i64 1)
  %19 = icmp ne i64 %18, 0
  br i1 %19, label %20, label %55

20:                                               ; preds = %12
  %21 = load i8, ptr @H5_ntzset, align 1, !tbaa !19, !range !21, !noundef !22
  %22 = trunc i8 %21 to i1
  br i1 %22, label %24, label %23

23:                                               ; preds = %20
  call void @tzset() #9
  store i8 1, ptr @H5_ntzset, align 1, !tbaa !19
  br label %24

24:                                               ; preds = %23, %20
  %25 = load ptr, ptr %2, align 8, !tbaa !15
  %26 = call i64 @mktime(ptr noundef %25) #9
  store i64 %26, ptr %3, align 8, !tbaa !18
  %27 = icmp eq i64 -1, %26
  br i1 %27, label %28, label %47

28:                                               ; preds = %24
  br label %29

29:                                               ; preds = %28
  br label %30

30:                                               ; preds = %29
  br label %31

31:                                               ; preds = %30
  %32 = load i64, ptr @H5E_INTERNAL_g, align 8, !tbaa !18
  %33 = load i64, ptr @H5E_CANTCONVERT_g, align 8, !tbaa !18
  %34 = call i32 (ptr, ptr, i32, i64, i64, ptr, ...) @H5E_printf_stack(ptr noundef @.str, ptr noundef @__func__.H5_make_time, i32 noundef 195, i64 noundef %32, i64 noundef %33, ptr noundef @.str.1)
  br label %35

35:                                               ; preds = %31
  br label %36

36:                                               ; preds = %35
  store i8 1, ptr %5, align 1, !tbaa !19
  %37 = load i8, ptr %5, align 1, !tbaa !19, !range !21, !noundef !22
  %38 = trunc i8 %37 to i1
  %39 = zext i1 %38 to i8
  store i8 %39, ptr %5, align 1, !tbaa !19
  br label %40

40:                                               ; preds = %36
  br label %41

41:                                               ; preds = %40
  br label %42

42:                                               ; preds = %41
  store i64 -1, ptr %4, align 8, !tbaa !18
  br label %54

43:                                               ; No predecessors!
  br label %44

44:                                               ; preds = %43
  br label %45

45:                                               ; preds = %44
  br label %46

46:                                               ; preds = %45
  br label %47

47:                                               ; preds = %46, %24
  %48 = load ptr, ptr %2, align 8, !tbaa !15
  %49 = getelementptr inbounds nuw %struct.tm, ptr %48, i32 0, i32 9
  %50 = load i64, ptr %49, align 8, !tbaa !23
  %51 = load i64, ptr %3, align 8, !tbaa !18
  %52 = add nsw i64 %51, %50
  store i64 %52, ptr %3, align 8, !tbaa !18
  %53 = load i64, ptr %3, align 8, !tbaa !18
  store i64 %53, ptr %4, align 8, !tbaa !18
  br label %54

54:                                               ; preds = %47, %42
  br label %55

55:                                               ; preds = %54, %12
  %56 = load i64, ptr %4, align 8, !tbaa !18
  call void @llvm.lifetime.end.p0(i64 1, ptr %5) #9
  call void @llvm.lifetime.end.p0(i64 8, ptr %4) #9
  call void @llvm.lifetime.end.p0(i64 8, ptr %3) #9
  ret i64 %56
}