; Function Attrs: nounwind uwtable
define i64 @H5_make_time(ptr noundef captures(none) %0) local_unnamed_addr #0 {
  %2 = load i8, ptr @H5_init_g, align 1, !tbaa !11, !range !13, !noundef !14
  %3 = trunc nuw i8 %2 to i1
  %4 = load i8, ptr @H5_libterm_g, align 1, !range !13
  %5 = trunc nuw i8 %4 to i1
  %6 = xor i1 %5, true
  %7 = select i1 %3, i1 true, i1 %6
  br i1 %7, label %8, label %21, !prof !15

8:                                                ; preds = %1
  %.b6 = load i1, ptr @H5_ntzset, align 1
  br i1 %.b6, label %10, label %9

9:                                                ; preds = %8
  tail call void @tzset() #15
  store i1 true, ptr @H5_ntzset, align 1
  br label %10

10:                                               ; preds = %9, %8
  %11 = tail call i64 @mktime(ptr noundef %0) #15
  %12 = icmp eq i64 %11, -1
  br i1 %12, label %13, label %17

13:                                               ; preds = %10
  %14 = load i64, ptr @H5E_INTERNAL_g, align 8, !tbaa !16
  %15 = load i64, ptr @H5E_CANTCONVERT_g, align 8, !tbaa !16
  %16 = tail call i32 (ptr, ptr, i32, i64, i64, ptr, ...) @H5E_printf_stack(ptr noundef nonnull @.str, ptr noundef nonnull @__func__.H5_make_time, i32 noundef 195, i64 noundef %14, i64 noundef %15, ptr noundef nonnull @.str.1) #15
  br label %21

17:                                               ; preds = %10
  %18 = getelementptr inbounds nuw i8, ptr %0, i64 40
  %19 = load i64, ptr %18, align 8, !tbaa !17
  %20 = add nsw i64 %19, %11
  br label %21

21:                                               ; preds = %13, %17, %1
  %.0 = phi i64 [ -1, %13 ], [ %20, %17 ], [ 0, %1 ]
  ret i64 %.0
}